; Function Attrs: nounwind uwtable
define ptr @glfwSetWindowRefreshCallback(ptr noundef captures(none) %0, ptr noundef %1) local_unnamed_addr #0 {
  %3 = load i32, ptr @_glfw, align 8, !tbaa !138
  %.not = icmp eq i32 %3, 0
  br i1 %.not, label %4, label %5

4:                                                ; preds = %2
  tail call void (i32, ptr, ...) @_glfwInputError(i32 noundef 65537, ptr noundef null) #7
  br label %8

5:                                                ; preds = %2
  %6 = getelementptr inbounds nuw i8, ptr %0, i64 744
  %7 = load ptr, ptr %6, align 8, !tbaa !134
  store ptr %1, ptr %6, align 8, !tbaa !134
  br label %8

8:                                                ; preds = %5, %4
  %.0 = phi ptr [ %7, %5 ], [ null, %4 ]
  ret ptr %.0
}